; ModuleID = '14/743.c'
source_filename = "14/743.c"
target datalayout = "e-m:e-p270:32:32-p271:32:32-p272:64:64-i64:64-f80:128-n8:16:32:64-S128"
target triple = "x86_64-pc-linux-gnu"

%struct.anon = type { i32, i32, i32 }

@.str = private unnamed_addr constant [3 x i8] c"%d\00", align 1
@.str.1 = private unnamed_addr constant [4 x i8] c"%d \00", align 1
@.str.2 = private unnamed_addr constant [4 x i8] c"%d\0A\00", align 1

; Function Attrs: noinline nounwind uwtable
define dso_local i32 @main(i32 %0, i8** %1) #0 {
  %3 = alloca i32, align 4
  %4 = alloca i32, align 4
  %5 = alloca i8**, align 8
  %6 = alloca i32, align 4
  %7 = alloca [1000001 x %struct.anon], align 16
  %8 = alloca [100000 x i32], align 16
  %9 = alloca i32, align 4
  %10 = alloca i32, align 4
  %11 = alloca i32, align 4
  %12 = alloca i32, align 4
  %13 = alloca i32, align 4
  %14 = alloca i32, align 4
  %15 = alloca i32, align 4
  %16 = alloca i32, align 4
  %17 = alloca i32, align 4
  store i32 0, i32* %3, align 4
  store i32 %0, i32* %4, align 4
  store i8** %1, i8*** %5, align 8
  %18 = call i32 (i8*, ...) @__isoc99_scanf(i8* getelementptr inbounds ([3 x i8], [3 x i8]* @.str, i64 0, i64 0), i32* %6)
  store i32 0, i32* %12, align 4
  store i32 0, i32* %13, align 4
  store i32 0, i32* %14, align 4
  store i32 0, i32* %9, align 4
  br label %19

19:                                               ; preds = %53, %2
  %20 = load i32, i32* %9, align 4
  %21 = load i32, i32* %6, align 4
  %22 = icmp slt i32 %20, %21
  br i1 %22, label %23, label %56

23:                                               ; preds = %19
  %24 = load i32, i32* %9, align 4
  %25 = sext i32 %24 to i64
  %26 = getelementptr inbounds [1000001 x %struct.anon], [1000001 x %struct.anon]* %7, i64 0, i64 %25
  %27 = getelementptr inbounds %struct.anon, %struct.anon* %26, i32 0, i32 0
  %28 = call i32 (i8*, ...) @__isoc99_scanf(i8* getelementptr inbounds ([3 x i8], [3 x i8]* @.str, i64 0, i64 0), i32* %27)
  %29 = load i32, i32* %9, align 4
  %30 = sext i32 %29 to i64
  %31 = getelementptr inbounds [1000001 x %struct.anon], [1000001 x %struct.anon]* %7, i64 0, i64 %30
  %32 = getelementptr inbounds %struct.anon, %struct.anon* %31, i32 0, i32 1
  %33 = call i32 (i8*, ...) @__isoc99_scanf(i8* getelementptr inbounds ([3 x i8], [3 x i8]* @.str, i64 0, i64 0), i32* %32)
  %34 = load i32, i32* %9, align 4
  %35 = sext i32 %34 to i64
  %36 = getelementptr inbounds [1000001 x %struct.anon], [1000001 x %struct.anon]* %7, i64 0, i64 %35
  %37 = getelementptr inbounds %struct.anon, %struct.anon* %36, i32 0, i32 2
  %38 = call i32 (i8*, ...) @__isoc99_scanf(i8* getelementptr inbounds ([3 x i8], [3 x i8]* @.str, i64 0, i64 0), i32* %37)
  %39 = load i32, i32* %9, align 4
  %40 = sext i32 %39 to i64
  %41 = getelementptr inbounds [1000001 x %struct.anon], [1000001 x %struct.anon]* %7, i64 0, i64 %40
  %42 = getelementptr inbounds %struct.anon, %struct.anon* %41, i32 0, i32 1
  %43 = load i32, i32* %42, align 4
  %44 = load i32, i32* %9, align 4
  %45 = sext i32 %44 to i64
  %46 = getelementptr inbounds [1000001 x %struct.anon], [1000001 x %struct.anon]* %7, i64 0, i64 %45
  %47 = getelementptr inbounds %struct.anon, %struct.anon* %46, i32 0, i32 2
  %48 = load i32, i32* %47, align 4
  %49 = add nsw i32 %43, %48
  %50 = load i32, i32* %9, align 4
  %51 = sext i32 %50 to i64
  %52 = getelementptr inbounds [100000 x i32], [100000 x i32]* %8, i64 0, i64 %51
  store i32 %49, i32* %52, align 4
  br label %53

53:                                               ; preds = %23
  %54 = load i32, i32* %9, align 4
  %55 = add nsw i32 %54, 1
  store i32 %55, i32* %9, align 4
  br label %19

56:                                               ; preds = %19
  store i32 0, i32* %9, align 4
  br label %57

57:                                               ; preds = %80, %56
  %58 = load i32, i32* %9, align 4
  %59 = load i32, i32* %6, align 4
  %60 = icmp slt i32 %58, %59
  br i1 %60, label %61, label %83

61:                                               ; preds = %57
  %62 = load i32, i32* %9, align 4
  %63 = sext i32 %62 to i64
  %64 = getelementptr inbounds [100000 x i32], [100000 x i32]* %8, i64 0, i64 %63
  %65 = load i32, i32* %64, align 4
  %66 = load i32, i32* %12, align 4
  %67 = icmp sgt i32 %65, %66
  br i1 %67, label %68, label %79

68:                                               ; preds = %61
  %69 = load i32, i32* %9, align 4
  %70 = sext i32 %69 to i64
  %71 = getelementptr inbounds [100000 x i32], [100000 x i32]* %8, i64 0, i64 %70
  %72 = load i32, i32* %71, align 4
  store i32 %72, i32* %12, align 4
  %73 = load i32, i32* %9, align 4
  store i32 %73, i32* %10, align 4
  %74 = load i32, i32* %9, align 4
  %75 = sext i32 %74 to i64
  %76 = getelementptr inbounds [1000001 x %struct.anon], [1000001 x %struct.anon]* %7, i64 0, i64 %75
  %77 = getelementptr inbounds %struct.anon, %struct.anon* %76, i32 0, i32 0
  %78 = load i32, i32* %77, align 4
  store i32 %78, i32* %15, align 4
  br label %79

79:                                               ; preds = %68, %61
  br label %80

80:                                               ; preds = %79
  %81 = load i32, i32* %9, align 4
  %82 = add nsw i32 %81, 1
  store i32 %82, i32* %9, align 4
  br label %57

83:                                               ; preds = %57
  %84 = load i32, i32* %15, align 4
  %85 = call i32 (i8*, ...) @printf(i8* getelementptr inbounds ([4 x i8], [4 x i8]* @.str.1, i64 0, i64 0), i32 %84)
  %86 = load i32, i32* %12, align 4
  %87 = call i32 (i8*, ...) @printf(i8* getelementptr inbounds ([4 x i8], [4 x i8]* @.str.2, i64 0, i64 0), i32 %86)
  store i32 0, i32* %9, align 4
  br label %88

88:                                               ; preds = %115, %83
  %89 = load i32, i32* %9, align 4
  %90 = load i32, i32* %6, align 4
  %91 = icmp slt i32 %89, %90
  br i1 %91, label %92, label %118

92:                                               ; preds = %88
  %93 = load i32, i32* %9, align 4
  %94 = sext i32 %93 to i64
  %95 = getelementptr inbounds [100000 x i32], [100000 x i32]* %8, i64 0, i64 %94
  %96 = load i32, i32* %95, align 4
  %97 = load i32, i32* %13, align 4
  %98 = icmp sgt i32 %96, %97
  br i1 %98, label %99, label %114

99:                                               ; preds = %92
  %100 = load i32, i32* %9, align 4
  %101 = load i32, i32* %10, align 4
  %102 = icmp ne i32 %100, %101
  br i1 %102, label %103, label %114

103:                                              ; preds = %99
  %104 = load i32, i32* %9, align 4
  %105 = sext i32 %104 to i64
  %106 = getelementptr inbounds [100000 x i32], [100000 x i32]* %8, i64 0, i64 %105
  %107 = load i32, i32* %106, align 4
  store i32 %107, i32* %13, align 4
  %108 = load i32, i32* %9, align 4
  store i32 %108, i32* %11, align 4
  %109 = load i32, i32* %9, align 4
  %110 = sext i32 %109 to i64
  %111 = getelementptr inbounds [1000001 x %struct.anon], [1000001 x %struct.anon]* %7, i64 0, i64 %110
  %112 = getelementptr inbounds %struct.anon, %struct.anon* %111, i32 0, i32 0
  %113 = load i32, i32* %112, align 4
  store i32 %113, i32* %16, align 4
  br label %114

114:                                              ; preds = %103, %99, %92
  br label %115

115:                                              ; preds = %114
  %116 = load i32, i32* %9, align 4
  %117 = add nsw i32 %116, 1
  store i32 %117, i32* %9, align 4
  br label %88

118:                                              ; preds = %88
  %119 = load i32, i32* %16, align 4
  %120 = call i32 (i8*, ...) @printf(i8* getelementptr inbounds ([4 x i8], [4 x i8]* @.str.1, i64 0, i64 0), i32 %119)
  %121 = load i32, i32* %13, align 4
  %122 = call i32 (i8*, ...) @printf(i8* getelementptr inbounds ([4 x i8], [4 x i8]* @.str.2, i64 0, i64 0), i32 %121)
  store i32 0, i32* %9, align 4
  br label %123

123:                                              ; preds = %153, %118
  %124 = load i32, i32* %9, align 4
  %125 = load i32, i32* %6, align 4
  %126 = icmp slt i32 %124, %125
  br i1 %126, label %127, label %156

127:                                              ; preds = %123
  %128 = load i32, i32* %9, align 4
  %129 = sext i32 %128 to i64
  %130 = getelementptr inbounds [100000 x i32], [100000 x i32]* %8, i64 0, i64 %129
  %131 = load i32, i32* %130, align 4
  %132 = load i32, i32* %14, align 4
  %133 = icmp sgt i32 %131, %132
  br i1 %133, label %134, label %152

134:                                              ; preds = %127
  %135 = load i32, i32* %9, align 4
  %136 = load i32, i32* %10, align 4
  %137 = icmp ne i32 %135, %136
  br i1 %137, label %138, label %152

138:                                              ; preds = %134
  %139 = load i32, i32* %9, align 4
  %140 = load i32, i32* %11, align 4
  %141 = icmp ne i32 %139, %140
  br i1 %141, label %142, label %152

142:                                              ; preds = %138
  %143 = load i32, i32* %9, align 4
  %144 = sext i32 %143 to i64
  %145 = getelementptr inbounds [100000 x i32], [100000 x i32]* %8, i64 0, i64 %144
  %146 = load i32, i32* %145, align 4
  store i32 %146, i32* %14, align 4
  %147 = load i32, i32* %9, align 4
  %148 = sext i32 %147 to i64
  %149 = getelementptr inbounds [1000001 x %struct.anon], [1000001 x %struct.anon]* %7, i64 0, i64 %148
  %150 = getelementptr inbounds %struct.anon, %struct.anon* %149, i32 0, i32 0
  %151 = load i32, i32* %150, align 4
  store i32 %151, i32* %17, align 4
  br label %152

152:                                              ; preds = %142, %138, %134, %127
  br label %153

153:                                              ; preds = %152
  %154 = load i32, i32* %9, align 4
  %155 = add nsw i32 %154, 1
  store i32 %155, i32* %9, align 4
  br label %123

156:                                              ; preds = %123
  %157 = load i32, i32* %17, align 4
  %158 = call i32 (i8*, ...) @printf(i8* getelementptr inbounds ([4 x i8], [4 x i8]* @.str.1, i64 0, i64 0), i32 %157)
  %159 = load i32, i32* %14, align 4
  %160 = call i32 (i8*, ...) @printf(i8* getelementptr inbounds ([4 x i8], [4 x i8]* @.str.2, i64 0, i64 0), i32 %159)
  ret i32 0
}

declare dso_local i32 @__isoc99_scanf(i8*, ...) #1

declare dso_local i32 @printf(i8*, ...) #1


!llvm.module.flags = !{!0}
!llvm.ident = !{!1}

!0 = !{i32 1, !"wchar_size", i32 4}
!1 = !{!"clang version 10.0.0-4ubuntu1 "}
